; Function Attrs: nounwind uwtable
define range(i32 0, -2147483648) i32 @Wlc_NtkPrepareBits(ptr noundef captures(none) initializes((756, 760)) %0) local_unnamed_addr #2 {
  %2 = getelementptr inbounds nuw i8, ptr %0, i64 752
  %3 = getelementptr inbounds nuw i8, ptr %0, i64 652
  %4 = load i32, ptr %3, align 4, !tbaa !9
  %5 = load i32, ptr %2, align 8, !tbaa !21
  %.not.i.i.i = icmp slt i32 %5, %4
  br i1 %.not.i.i.i, label %6, label %Vec_IntGrow.exit.i.i

6:                                                ; preds = %1
  %7 = getelementptr inbounds nuw i8, ptr %0, i64 760
  %8 = load ptr, ptr %7, align 8, !tbaa !22
  %.not9.i.i.i = icmp eq ptr %8, null
  %9 = sext i32 %4 to i64
  %10 = shl nsw i64 %9, 2
  br i1 %.not9.i.i.i, label %13, label %11

11:                                               ; preds = %6
  %12 = tail call ptr @realloc(ptr noundef nonnull %8, i64 noundef %10) #21
  br label %15

13:                                               ; preds = %6
  %14 = tail call noalias ptr @malloc(i64 noundef %10) #22
  br label %15

15:                                               ; preds = %13, %11
  %16 = phi ptr [ %12, %11 ], [ %14, %13 ]
  store ptr %16, ptr %7, align 8, !tbaa !22
  store i32 %4, ptr %2, align 8, !tbaa !21
  br label %Vec_IntGrow.exit.i.i

Vec_IntGrow.exit.i.i:                             ; preds = %15, %1
  %17 = icmp sgt i32 %4, 0
  br i1 %17, label %.lr.ph.i.i, label %Wlc_NtkCleanCopy.exit

.lr.ph.i.i:                                       ; preds = %Vec_IntGrow.exit.i.i
  %18 = getelementptr inbounds nuw i8, ptr %0, i64 760
  %19 = load ptr, ptr %18, align 8, !tbaa !22
  %wide.trip.count.i.i = zext nneg i32 %4 to i64
  %20 = shl nuw nsw i64 %wide.trip.count.i.i, 2
  tail call void @llvm.memset.p0.i64(ptr align 4 %19, i8 0, i64 %20, i1 false), !tbaa !3
  br label %Wlc_NtkCleanCopy.exit

Wlc_NtkCleanCopy.exit:                            ; preds = %Vec_IntGrow.exit.i.i, %.lr.ph.i.i
  %21 = getelementptr inbounds nuw i8, ptr %0, i64 756
  store i32 %4, ptr %21, align 4, !tbaa !23
  %22 = getelementptr i8, ptr %0, i64 648
  %.val16 = load i32, ptr %22, align 8, !tbaa !24
  %23 = icmp sgt i32 %.val16, 1
  br i1 %23, label %.lr.ph, label %.critedge

.lr.ph:                                           ; preds = %Wlc_NtkCleanCopy.exit
  %24 = getelementptr i8, ptr %0, i64 640
  %.val12 = load ptr, ptr %24, align 8, !tbaa !25
  %25 = getelementptr i8, ptr %0, i64 760
  %.val13 = load ptr, ptr %25, align 8, !tbaa !22
  br label %26

26:                                               ; preds = %.lr.ph, %26
  %indvars.iv = phi i64 [ 1, %.lr.ph ], [ %indvars.iv.next, %26 ]
  %.018 = phi i32 [ 0, %.lr.ph ], [ %34, %26 ]
  %27 = getelementptr inbounds nuw %struct.Wlc_Obj_t_, ptr %.val12, i64 %indvars.iv
  %28 = getelementptr inbounds nuw i32, ptr %.val13, i64 %indvars.iv
  store i32 %.018, ptr %28, align 4, !tbaa !3
  %29 = getelementptr i8, ptr %27, i64 8
  %.val14 = load i32, ptr %29, align 8, !tbaa !26
  %30 = getelementptr i8, ptr %27, i64 12
  %.val15 = load i32, ptr %30, align 4, !tbaa !28
  %31 = sub nsw i32 %.val14, %.val15
  %32 = tail call i32 @llvm.abs.i32(i32 %31, i1 true)
  %33 = add nuw nsw i32 %.018, 1
  %34 = add nuw nsw i32 %33, %32
  %indvars.iv.next = add nuw nsw i64 %indvars.iv, 1
  %.val = load i32, ptr %22, align 8, !tbaa !24
  %35 = sext i32 %.val to i64
  %36 = icmp slt i64 %indvars.iv.next, %35
  br i1 %36, label %26, label %.critedge, !llvm.loop !29

.critedge:                                        ; preds = %26, %Wlc_NtkCleanCopy.exit
  %.0.lcssa = phi i32 [ 0, %Wlc_NtkCleanCopy.exit ], [ %34, %26 ]
  ret i32 %.0.lcssa
}